target datalayout = "e-m:e-p270:32:32-p271:32:32-p272:64:64-i64:64-i128:128-f80:128-n8:16:32:64-S128"
target triple = "x86_64-unknown-linux-gnu"

%struct.Object = type { ptr, ptr, ptr, i32, ptr }
%struct.DeviceState = type { %struct.Object, ptr, ptr, i8, i8, i64, ptr, i32, i8, ptr, %struct.NamedGPIOListHead, %struct.NamedClockListHead, %struct.BusStateHead, i32, i32, i32, %struct.ResettableState, ptr, %struct.MemReentrancyGuard }
%struct.NamedGPIOListHead = type { ptr }
%struct.NamedClockListHead = type { ptr }
%struct.BusStateHead = type { ptr }
%struct.ResettableState = type { i32, i8, i8 }
%struct.MemReentrancyGuard = type { i8 }

@.str.7 = private unnamed_addr constant [1 x i8] zeroinitializer, align 1
@.str.45 = private unnamed_addr constant [7 x i8] c"device\00", align 1
@.str.46 = private unnamed_addr constant [101 x i8] c"/home/dtcxzyw/WorkSpace/Projects/compilers/llvm-opt-benchmark/bench/qemu/qemu/include/hw/qdev-core.h\00", align 1
@__func__.DEVICE = private unnamed_addr constant [7 x i8] c"DEVICE\00", align 1

; Function Attrs: nounwind sspstrong uwtable
define internal ptr @DEVICE(ptr noundef %obj) #0 {
entry:
  %obj.addr = alloca ptr, align 8
  store ptr %obj, ptr %obj.addr, align 8
  %0 = load ptr, ptr %obj.addr, align 8
  %call = call ptr @object_dynamic_cast_assert(ptr noundef %0, ptr noundef @.str.45, ptr noundef @.str.46, i32 noundef 77, ptr noundef @__func__.DEVICE)
  ret ptr %call
}

; Function Attrs: nounwind sspstrong uwtable
define internal void @set_blocksize(ptr noundef %obj, ptr noundef %v, ptr noundef %name, ptr noundef %opaque, ptr noundef %errp) #0 {
entry:
  %obj.addr = alloca ptr, align 8
  %v.addr = alloca ptr, align 8
  %name.addr = alloca ptr, align 8
  %opaque.addr = alloca ptr, align 8
  %errp.addr = alloca ptr, align 8
  %dev = alloca ptr, align 8
  %prop = alloca ptr, align 8
  %ptr = alloca ptr, align 8
  %value = alloca i64, align 8
  %local_err = alloca ptr, align 8
  store ptr %obj, ptr %obj.addr, align 8
  store ptr %v, ptr %v.addr, align 8
  store ptr %name, ptr %name.addr, align 8
  store ptr %opaque, ptr %opaque.addr, align 8
  store ptr %errp, ptr %errp.addr, align 8
  %0 = load ptr, ptr %obj.addr, align 8
  %call = call ptr @DEVICE(ptr noundef %0)
  store ptr %call, ptr %dev, align 8
  %1 = load ptr, ptr %opaque.addr, align 8
  store ptr %1, ptr %prop, align 8
  %2 = load ptr, ptr %obj.addr, align 8
  %3 = load ptr, ptr %prop, align 8
  %call1 = call ptr @object_field_prop_ptr(ptr noundef %2, ptr noundef %3)
  store ptr %call1, ptr %ptr, align 8
  store ptr null, ptr %local_err, align 8
  %4 = load ptr, ptr %v.addr, align 8
  %5 = load ptr, ptr %name.addr, align 8
  %6 = load ptr, ptr %errp.addr, align 8
  %call2 = call zeroext i1 @visit_type_size(ptr noundef %4, ptr noundef %5, ptr noundef %value, ptr noundef %6)
  br i1 %call2, label %if.end, label %if.then

if.then:                                          ; preds = %entry
  br label %return

if.end:                                           ; preds = %entry
  %7 = load ptr, ptr %dev, align 8
  %id = getelementptr inbounds %struct.DeviceState, ptr %7, i32 0, i32 1
  %8 = load ptr, ptr %id, align 8
  %tobool = icmp ne ptr %8, null
  br i1 %tobool, label %cond.true, label %cond.false

cond.true:                                        ; preds = %if.end
  br label %cond.end

cond.false:                                       ; preds = %if.end
  br label %cond.end

cond.end:                                         ; preds = %cond.false, %cond.true
  %cond = phi ptr [ %8, %cond.true ], [ @.str.7, %cond.false ]
  %9 = load ptr, ptr %name.addr, align 8
  %10 = load i64, ptr %value, align 8
  call void @check_block_size(ptr noundef %cond, ptr noundef %9, i64 noundef %10, ptr noundef %local_err)
  %11 = load ptr, ptr %local_err, align 8
  %tobool3 = icmp ne ptr %11, null
  br i1 %tobool3, label %if.then4, label %if.end5

if.then4:                                         ; preds = %cond.end
  %12 = load ptr, ptr %errp.addr, align 8
  %13 = load ptr, ptr %local_err, align 8
  call void @error_propagate(ptr noundef %12, ptr noundef %13)
  br label %return

if.end5:                                          ; preds = %cond.end
  %14 = load i64, ptr %value, align 8
  %conv = trunc i64 %14 to i32
  %15 = load ptr, ptr %ptr, align 8
  store i32 %conv, ptr %15, align 4
  br label %return

return:                                           ; preds = %if.end5, %if.then4, %if.then
  ret void
}