; Function Attrs: nounwind sspstrong uwtable
define internal void @set_blocksize(ptr noundef %obj, ptr noundef %v, ptr noundef %name, ptr noundef %opaque, ptr noundef %errp) #0 {
entry:
  %value = alloca i64, align 8
  %local_err = alloca ptr, align 8
  %call.i = tail call ptr @object_dynamic_cast_assert(ptr noundef %obj, ptr noundef nonnull @.str.45, ptr noundef nonnull @.str.46, i32 noundef 77, ptr noundef nonnull @__func__.DEVICE) #10
  %call1 = tail call ptr @object_field_prop_ptr(ptr noundef %obj, ptr noundef %opaque) #10
  store ptr null, ptr %local_err, align 8
  %call2 = call zeroext i1 @visit_type_size(ptr noundef %v, ptr noundef %name, ptr noundef nonnull %value, ptr noundef %errp) #10
  br i1 %call2, label %if.end, label %return

if.end:                                           ; preds = %entry
  %id = getelementptr inbounds nuw i8, ptr %call.i, i64 40
  %0 = load ptr, ptr %id, align 8
  %tobool.not = icmp eq ptr %0, null
  %..str.7 = select i1 %tobool.not, ptr @.str.7, ptr %0
  %1 = load i64, ptr %value, align 8
  call void @check_block_size(ptr noundef nonnull %..str.7, ptr noundef %name, i64 noundef %1, ptr noundef nonnull %local_err) #10
  %2 = load ptr, ptr %local_err, align 8
  %tobool3.not = icmp eq ptr %2, null
  br i1 %tobool3.not, label %if.end5, label %if.then4

if.then4:                                         ; preds = %if.end
  call void @error_propagate(ptr noundef %errp, ptr noundef nonnull %2) #10
  br label %return

if.end5:                                          ; preds = %if.end
  %3 = load i64, ptr %value, align 8
  %conv = trunc i64 %3 to i32
  store i32 %conv, ptr %call1, align 4
  br label %return

return:                                           ; preds = %entry, %if.end5, %if.then4
  ret void
}